target datalayout = "e-m:e-p270:32:32-p271:32:32-p272:64:64-i64:64-i128:128-f80:128-n8:16:32:64-S128"
target triple = "x86_64-pc-linux-gnu"

%struct.evp_pkey_method_st = type { i32, i32, ptr, ptr, ptr, ptr, ptr, ptr, ptr, ptr, ptr, ptr, ptr, ptr, ptr, ptr, ptr, ptr, ptr, ptr, ptr, ptr, ptr, ptr, ptr, ptr, ptr, ptr, ptr, ptr, ptr, ptr, ptr }
%struct.DH_PKEY_CTX = type { i32, i32, i32, i32, i32, ptr, i32, [2 x i32], i8, ptr, ptr, ptr, i64, i64 }
%struct.evp_pkey_ctx_st = type { i32, ptr, ptr, ptr, ptr, %union.anon, %struct.anon.4, ptr, ptr, ptr, i32, i32, ptr, ptr, ptr, ptr, ptr, i8, ptr }
%union.anon = type { %struct.anon.0 }
%struct.anon.0 = type { ptr, ptr }
%struct.anon.4 = type { ptr, ptr, i64, i8 }

@.str = private unnamed_addr constant [32 x i8] c"../openssl/crypto/dh/dh_pmeth.c\00", align 1
@__func__.pkey_dh_keygen = private unnamed_addr constant [15 x i8] c"pkey_dh_keygen\00", align 1

; Function Attrs: nounwind uwtable
define internal i32 @pkey_dh_keygen(ptr noundef %0, ptr noundef %1) #0 {
  %3 = alloca i32, align 4
  %4 = alloca ptr, align 8
  %5 = alloca ptr, align 8
  %6 = alloca ptr, align 8
  %7 = alloca ptr, align 8
  %8 = alloca i32, align 4
  store ptr %0, ptr %4, align 8, !tbaa !3
  store ptr %1, ptr %5, align 8, !tbaa !40
  call void @llvm.lifetime.start.p0(i64 8, ptr %6) #6
  %9 = load ptr, ptr %4, align 8, !tbaa !3
  %10 = getelementptr inbounds nuw %struct.evp_pkey_ctx_st, ptr %9, i32 0, i32 16
  %11 = load ptr, ptr %10, align 8, !tbaa !19
  store ptr %11, ptr %6, align 8, !tbaa !8
  call void @llvm.lifetime.start.p0(i64 8, ptr %7) #6
  store ptr null, ptr %7, align 8, !tbaa !41
  %12 = load ptr, ptr %4, align 8, !tbaa !3
  %13 = getelementptr inbounds nuw %struct.evp_pkey_ctx_st, ptr %12, i32 0, i32 14
  %14 = load ptr, ptr %13, align 8, !tbaa !47
  %15 = icmp eq ptr %14, null
  br i1 %15, label %16, label %22

16:                                               ; preds = %2
  %17 = load ptr, ptr %6, align 8, !tbaa !8
  %18 = getelementptr inbounds nuw %struct.DH_PKEY_CTX, ptr %17, i32 0, i32 6
  %19 = load i32, ptr %18, align 8, !tbaa !34
  %20 = icmp eq i32 %19, 0
  br i1 %20, label %21, label %22

21:                                               ; preds = %16
  call void @ERR_new()
  call void @ERR_set_debug(ptr noundef @.str, i32 noundef 380, ptr noundef @__func__.pkey_dh_keygen)
  call void (i32, i32, ptr, ...) @ERR_set_error(i32 noundef 5, i32 noundef 107, ptr noundef null)
  store i32 0, ptr %3, align 4
  store i32 1, ptr %8, align 4
  br label %63

22:                                               ; preds = %16, %2
  %23 = load ptr, ptr %6, align 8, !tbaa !8
  %24 = getelementptr inbounds nuw %struct.DH_PKEY_CTX, ptr %23, i32 0, i32 6
  %25 = load i32, ptr %24, align 8, !tbaa !34
  %26 = icmp ne i32 %25, 0
  br i1 %26, label %27, label %32

27:                                               ; preds = %22
  %28 = load ptr, ptr %6, align 8, !tbaa !8
  %29 = getelementptr inbounds nuw %struct.DH_PKEY_CTX, ptr %28, i32 0, i32 6
  %30 = load i32, ptr %29, align 8, !tbaa !34
  %31 = call ptr @DH_new_by_nid(i32 noundef %30)
  store ptr %31, ptr %7, align 8, !tbaa !41
  br label %34

32:                                               ; preds = %22
  %33 = call ptr @DH_new()
  store ptr %33, ptr %7, align 8, !tbaa !41
  br label %34

34:                                               ; preds = %32, %27
  %35 = load ptr, ptr %7, align 8, !tbaa !41
  %36 = icmp eq ptr %35, null
  br i1 %36, label %37, label %38

37:                                               ; preds = %34
  store i32 0, ptr %3, align 4
  store i32 1, ptr %8, align 4
  br label %63

38:                                               ; preds = %34
  %39 = load ptr, ptr %5, align 8, !tbaa !40
  %40 = load ptr, ptr %4, align 8, !tbaa !3
  %41 = getelementptr inbounds nuw %struct.evp_pkey_ctx_st, ptr %40, i32 0, i32 12
  %42 = load ptr, ptr %41, align 8, !tbaa !48
  %43 = getelementptr inbounds nuw %struct.evp_pkey_method_st, ptr %42, i32 0, i32 0
  %44 = load i32, ptr %43, align 8, !tbaa !49
  %45 = load ptr, ptr %7, align 8, !tbaa !41
  %46 = call i32 @EVP_PKEY_assign(ptr noundef %39, i32 noundef %44, ptr noundef %45)
  %47 = load ptr, ptr %4, align 8, !tbaa !3
  %48 = getelementptr inbounds nuw %struct.evp_pkey_ctx_st, ptr %47, i32 0, i32 14
  %49 = load ptr, ptr %48, align 8, !tbaa !47
  %50 = icmp ne ptr %49, null
  br i1 %50, label %51, label %59

51:                                               ; preds = %38
  %52 = load ptr, ptr %5, align 8, !tbaa !40
  %53 = load ptr, ptr %4, align 8, !tbaa !3
  %54 = getelementptr inbounds nuw %struct.evp_pkey_ctx_st, ptr %53, i32 0, i32 14
  %55 = load ptr, ptr %54, align 8, !tbaa !47
  %56 = call i32 @EVP_PKEY_copy_parameters(ptr noundef %52, ptr noundef %55)
  %57 = icmp ne i32 %56, 0
  br i1 %57, label %59, label %58

58:                                               ; preds = %51
  store i32 0, ptr %3, align 4
  store i32 1, ptr %8, align 4
  br label %63

59:                                               ; preds = %51, %38
  %60 = load ptr, ptr %5, align 8, !tbaa !40
  %61 = call ptr @EVP_PKEY_get0_DH(ptr noundef %60)
  %62 = call i32 @DH_generate_key(ptr noundef %61)
  store i32 %62, ptr %3, align 4
  store i32 1, ptr %8, align 4
  br label %63

63:                                               ; preds = %59, %58, %37, %21
  call void @llvm.lifetime.end.p0(i64 8, ptr %7) #6
  call void @llvm.lifetime.end.p0(i64 8, ptr %6) #6
  %64 = load i32, ptr %3, align 4
  ret i32 %64
}