; Function Attrs: nounwind uwtable
define internal i32 @pkey_dh_keygen(ptr noundef readonly captures(none) %0, ptr noundef %1) #1 {
  %3 = getelementptr inbounds nuw i8, ptr %0, i64 152
  %4 = load ptr, ptr %3, align 8, !tbaa !16
  %5 = getelementptr inbounds nuw i8, ptr %0, i64 136
  %6 = load ptr, ptr %5, align 8, !tbaa !38
  %7 = icmp eq ptr %6, null
  %8 = getelementptr inbounds nuw i8, ptr %4, i64 32
  %9 = load i32, ptr %8, align 8, !tbaa !31
  %10 = icmp eq i32 %9, 0
  br i1 %7, label %11, label %13

11:                                               ; preds = %2
  br i1 %10, label %12, label %.thread

12:                                               ; preds = %11
  tail call void @ERR_new() #6
  tail call void @ERR_set_debug(ptr noundef nonnull @.str, i32 noundef 380, ptr noundef nonnull @__func__.pkey_dh_keygen) #6
  tail call void (i32, i32, ptr, ...) @ERR_set_error(i32 noundef 5, i32 noundef 107, ptr noundef null) #6
  br label %30

13:                                               ; preds = %2
  br i1 %10, label %15, label %.thread

.thread:                                          ; preds = %11, %13
  %14 = tail call ptr @DH_new_by_nid(i32 noundef %9) #6
  br label %17

15:                                               ; preds = %13
  %16 = tail call ptr @DH_new() #6
  br label %17

17:                                               ; preds = %15, %.thread
  %.0 = phi ptr [ %14, %.thread ], [ %16, %15 ]
  %18 = icmp eq ptr %.0, null
  br i1 %18, label %30, label %19

19:                                               ; preds = %17
  %20 = getelementptr inbounds nuw i8, ptr %0, i64 120
  %21 = load ptr, ptr %20, align 8, !tbaa !39
  %22 = load i32, ptr %21, align 8, !tbaa !40
  %23 = tail call i32 @EVP_PKEY_assign(ptr noundef %1, i32 noundef %22, ptr noundef nonnull %.0) #6
  %24 = load ptr, ptr %5, align 8, !tbaa !38
  %.not16 = icmp eq ptr %24, null
  br i1 %.not16, label %27, label %25

25:                                               ; preds = %19
  %26 = tail call i32 @EVP_PKEY_copy_parameters(ptr noundef %1, ptr noundef nonnull %24) #6
  %.not17 = icmp eq i32 %26, 0
  br i1 %.not17, label %30, label %27

27:                                               ; preds = %25, %19
  %28 = tail call ptr @EVP_PKEY_get0_DH(ptr noundef %1) #6
  %29 = tail call i32 @DH_generate_key(ptr noundef %28) #6
  br label %30

30:                                               ; preds = %25, %17, %27, %12
  %.013 = phi i32 [ 0, %12 ], [ %29, %27 ], [ 0, %17 ], [ 0, %25 ]
  ret i32 %.013
}